Certificate:
    Data:
        Version: 3 (0x2)
        Serial Number: 2 (0x2)
    Signature Algorithm: md5WithRSAEncryption
        Issuer: C=RU, ST=Moscow, L=Moscow, O=Graphie, O=LLC Graphie, OU=IT-company, CN=www.phie.ru/emailAddress=help@phie.ru
        Validity
            Not Before: Oct  1 13:57:21 2017 GMT
            Not After : Oct  1 13:57:21 2018 GMT
        Subject: C=RU, ST=Moscow, L=Moscow, O=Graphie, O=LLC Graphie, OU=IT-company, CN=es-master-0
        Subject Public Key Info:
            Public Key Algorithm: rsaEncryption
                Public-Key: (2048 bit)
                Modulus:
                    00:de:db:73:9e:2f:3b:fe:eb:0d:c7:1f:b7:5f:e0:
                    69:6a:70:6d:b4:f2:a4:66:2b:10:b9:1e:74:8e:9c:
                    46:d8:e9:ee:8f:f9:ad:60:54:19:3a:88:3e:c5:f7:
                    e3:0c:4f:72:51:b3:cd:50:51:13:74:e0:33:99:d8:
                    20:cf:75:4c:5b:68:35:e7:76:66:da:47:37:61:a6:
                    26:d1:91:02:06:97:dd:9f:4b:80:3b:a0:3f:06:43:
                    7a:37:47:f5:5e:a9:82:17:38:2b:b5:de:3e:3c:b5:
                    39:4d:0b:9e:f2:8f:99:5d:67:21:2b:52:7e:3c:e0:
                    77:3f:c9:78:9b:ac:3f:b3:0e:85:a8:84:75:fc:8d:
                    7b:f8:03:74:25:11:87:ee:11:2c:68:8b:8f:f0:bf:
                    c7:d5:f5:6f:d3:98:fe:d4:0f:98:a5:23:89:c2:d5:
                    a8:a6:53:4c:a2:5f:a1:39:13:88:38:8a:7e:d3:06:
                    9c:4b:85:17:d5:ac:49:2f:bb:29:71:c4:5d:b5:95:
                    95:db:eb:74:2b:2f:73:b7:18:95:3a:d6:47:f7:79:
                    46:84:5a:46:2e:f8:25:df:10:bb:16:17:1c:84:cd:
                    2c:5f:2e:3d:99:c3:22:d4:be:23:bb:a4:d6:13:b1:
                    a5:b0:58:3b:6d:bb:04:30:97:11:73:a8:6a:ea:9a:
                    e5:57
                Exponent: 65537 (0x10001)
        X509v3 extensions:
            X509v3 Basic Constraints: 
                CA:FALSE
            Netscape Comment: 
                OpenSSL Generated Certificate
            X509v3 Subject Key Identifier: 
                06:58:30:99:47:55:48:61:37:AE:F9:7B:21:60:51:70:63:55:C9:2A
            X509v3 Authority Key Identifier: 
                keyid:23:DF:98:DA:CB:23:3D:CA:03:FF:9E:61:78:66:72:52:3C:15:B2:1D
                DirName:/C=RU/ST=Moscow/L=Moscow/O=Graphie/O=LLC Graphie/OU=IT-company/CN=www.phie.ru/emailAddress=help@phie.ru
                serial:E2:EF:C1:24:79:03:5A:67

            X509v3 Subject Alternative Name: 
                Registered ID:1.2.3.4.5.5
    Signature Algorithm: md5WithRSAEncryption
         02:42:bc:0d:56:bf:a1:66:8d:52:e4:b9:10:89:df:41:54:0c:
         03:7a:fe:6d:d1:dd:37:86:3c:f6:af:a7:e3:f2:bb:00:fc:89:
         37:57:f3:f5:7c:c6:45:6b:28:60:d4:4d:46:88:98:a3:76:42:
         74:b3:06:31:2d:1b:16:94:e3:ac:f8:8b:73:fb:ba:ea:46:54:
         09:18:a1:0b:ec:52:60:38:d8:e4:10:9a:29:b5:c8:f7:10:f6:
         31:a2:74:96:f3:13:f9:b6:e2:5a:9c:e8:53:5b:a1:96:66:24:
         6f:96:57:41:ee:d4:a2:c3:49:48:a2:a1:85:dc:3a:57:7a:f7:
         ed:c9:1d:90:f1:4f:b2:ce:16:30:af:f9:48:9b:2d:c8:5f:96:
         7c:da:a9:c1:18:23:85:f1:98:c5:d5:cc:67:71:e4:40:e9:12:
         60:64:69:32:6b:89:05:fe:4e:f6:0e:fd:ce:3f:0d:21:4a:8c:
         f0:bc:7c:ca:ed:2f:d0:da:c1:d4:ea:8b:8d:13:a7:fc:1c:6a:
         b6:46:88:21:1d:d5:2c:0d:5a:50:d0:de:5c:5a:35:a5:e0:a4:
         41:aa:a0:69:ce:f1:bc:b7:6f:5b:2a:bd:96:6d:6b:4f:75:b4:
         d9:e8:e2:ee:e6:81:7e:85:15:b3:75:c5:1f:e9:06:c0:d1:a7:
         9e:5d:8b:b3
-----BEGIN CERTIFICATE-----
MIIE5TCCA82gAwIBAgIBAjANBgkqhkiG9w0BAQQFADCBnzELMAkGA1UEBhMCUlUx
DzANBgNVBAgTBk1vc2NvdzEPMA0GA1UEBxMGTW9zY293MRAwDgYDVQQKEwdHcmFw
aGllMRQwEgYDVQQKEwtMTEMgR3JhcGhpZTETMBEGA1UECxMKSVQtY29tcGFueTEU
MBIGA1UEAxMLd3d3LnBoaWUucnUxGzAZBgkqhkiG9w0BCQEWDGhlbHBAcGhpZS5y
dTAeFw0xNzEwMDExMzU3MjFaFw0xODEwMDExMzU3MjFaMIGCMQswCQYDVQQGEwJS
VTEPMA0GA1UECBMGTW9zY293MQ8wDQYDVQQHEwZNb3Njb3cxEDAOBgNVBAoTB0dy
YXBoaWUxFDASBgNVBAoTC0xMQyBHcmFwaGllMRMwEQYDVQQLEwpJVC1jb21wYW55
MRQwEgYDVQQDEwtlcy1tYXN0ZXItMDCCASIwDQYJKoZIhvcNAQEBBQADggEPADCC
AQoCggEBAN7bc54vO/7rDccft1/gaWpwbbTypGYrELkedI6cRtjp7o/5rWBUGTqI
PsX34wxPclGzzVBRE3TgM5nYIM91TFtoNed2ZtpHN2GmJtGRAgaX3Z9LgDugPwZD
ejdH9V6pghc4K7XePjy1OU0LnvKPmV1nIStSfjzgdz/JeJusP7MOhaiEdfyNe/gD
dCURh+4RLGiLj/C/x9X1b9OY/tQPmKUjicLVqKZTTKJfoTkTiDiKftMGnEuFF9Ws
SS+7KXHEXbWVldvrdCsvc7cYlTrWR/d5RoRaRi74Jd8QuxYXHITNLF8uPZnDItS+
I7uk1hOxpbBYO227BDCXEXOoauqa5VcCAwEAAaOCAUUwggFBMAkGA1UdEwQCMAAw
LAYJYIZIAYb4QgENBB8WHU9wZW5TU0wgR2VuZXJhdGVkIENlcnRpZmljYXRlMB0G
A1UdDgQWBBQGWDCZR1VIYTeu+XshYFFwY1XJKjCB1AYDVR0jBIHMMIHJgBQj35ja
yyM9ygP/nmF4ZnJSPBWyHaGBpaSBojCBnzELMAkGA1UEBhMCUlUxDzANBgNVBAgT
Bk1vc2NvdzEPMA0GA1UEBxMGTW9zY293MRAwDgYDVQQKEwdHcmFwaGllMRQwEgYD
VQQKEwtMTEMgR3JhcGhpZTETMBEGA1UECxMKSVQtY29tcGFueTEUMBIGA1UEAxML
d3d3LnBoaWUucnUxGzAZBgkqhkiG9w0BCQEWDGhlbHBAcGhpZS5ydYIJAOLvwSR5
A1pnMBAGA1UdEQQJMAeIBSoDBAUFMA0GCSqGSIb3DQEBBAUAA4IBAQACQrwNVr+h
Zo1S5LkQid9BVAwDev5t0d03hjz2r6fj8rsA/Ik3V/P1fMZFayhg1E1GiJijdkJ0
swYxLRsWlOOs+Itz+7rqRlQJGKEL7FJgONjkEJoptcj3EPYxonSW8xP5tuJanOhT
W6GWZiRvlldB7tSiw0lIoqGF3DpXevftyR2Q8U+yzhYwr/lImy3IX5Z82qnBGCOF
8ZjF1cxnceRA6RJgZGkya4kF/k72Dv3OPw0hSozwvHzK7S/Q2sHU6ouNE6f8HGq2
RoghHdUsDVpQ0N5cWjWl4KRBqqBpzvG8t29bKr2WbWtPdbTZ6OLu5oF+hRWzdcUf
6QbA0aeeXYuz
-----END CERTIFICATE-----
