Certificate:
    Data:
        Version: 3 (0x2)
        Serial Number: 3 (0x3)
    Signature Algorithm: md5WithRSAEncryption
        Issuer: C=RU, ST=Moscow, L=Moscow, O=Graphie, O=LLC Graphie, OU=IT-company, CN=www.phie.ru/emailAddress=help@phie.ru
        Validity
            Not Before: Oct  1 13:58:55 2017 GMT
            Not After : Oct  1 13:58:55 2018 GMT
        Subject: C=RU, ST=Moscow, L=Moscow, O=Graphie, O=LLC Graphie, OU=IT-company, CN=es-data-0
        Subject Public Key Info:
            Public Key Algorithm: rsaEncryption
                Public-Key: (2048 bit)
                Modulus:
                    00:c9:70:2f:68:6e:3e:90:35:64:1b:87:90:44:3c:
                    ed:64:97:7f:bf:8b:b5:3b:20:79:4b:fd:0a:54:b7:
                    8f:70:4b:b6:c7:f0:86:3e:2b:77:11:7d:72:e5:19:
                    b8:07:29:48:5b:a9:27:77:8e:50:60:31:0d:48:dd:
                    0f:dc:f8:9e:e5:34:aa:c4:86:3e:2e:b1:b3:a3:9b:
                    92:b8:8f:1a:66:57:2a:1f:8f:25:57:a6:13:2b:9a:
                    94:c1:8c:21:10:71:4f:05:1e:66:3c:fb:ad:a8:42:
                    1a:01:32:7b:45:03:9e:54:87:6e:70:6b:9c:99:8b:
                    11:1c:2b:6d:4d:11:60:89:e2:32:83:45:7b:f2:81:
                    7f:3b:53:4f:89:9f:78:a0:6d:c7:4b:69:2f:2b:75:
                    42:c9:b0:34:3f:72:c8:ad:6c:ae:a0:ab:68:25:38:
                    ec:ce:a1:7d:38:42:b2:56:ea:14:fc:23:b5:bf:59:
                    99:e9:b8:9b:34:3d:8f:89:e2:f8:bf:ba:3d:c5:00:
                    0f:23:17:a9:47:df:b5:96:cf:fb:68:6e:5a:4f:d5:
                    b0:5c:c4:0c:75:d7:c4:66:ae:39:d8:16:cf:e0:19:
                    a9:65:4b:90:c5:c4:6b:a1:6b:b6:50:54:ad:ab:56:
                    3f:1b:a0:60:9f:8d:a0:91:59:ad:b4:12:e8:59:29:
                    38:4d
                Exponent: 65537 (0x10001)
        X509v3 extensions:
            X509v3 Basic Constraints: 
                CA:FALSE
            Netscape Comment: 
                OpenSSL Generated Certificate
            X509v3 Subject Key Identifier: 
                DC:22:40:4E:A3:EF:80:B8:66:13:44:E2:85:8B:31:8A:5F:8E:FF:ED
            X509v3 Authority Key Identifier: 
                keyid:23:DF:98:DA:CB:23:3D:CA:03:FF:9E:61:78:66:72:52:3C:15:B2:1D
                DirName:/C=RU/ST=Moscow/L=Moscow/O=Graphie/O=LLC Graphie/OU=IT-company/CN=www.phie.ru/emailAddress=help@phie.ru
                serial:E2:EF:C1:24:79:03:5A:67

            X509v3 Subject Alternative Name: 
                Registered ID:1.2.3.4.5.5
    Signature Algorithm: md5WithRSAEncryption
         61:37:bf:d9:56:15:64:b2:3e:d5:e5:aa:90:b0:de:87:1d:7e:
         07:c7:a5:e7:c5:0e:18:dc:fd:76:44:9f:3b:79:68:b8:57:4d:
         d0:b7:b6:93:94:d4:ca:54:f2:b6:49:34:7e:c6:d6:33:d4:34:
         10:83:dc:f0:29:33:8d:e9:f5:e6:4e:9f:b3:78:b5:10:14:c1:
         5d:0e:c0:66:55:f2:89:1d:ab:03:fd:a3:5e:39:55:05:2e:d0:
         cc:d4:14:5b:2a:c6:8c:86:2f:f6:53:9c:5d:33:3e:b6:11:e9:
         f8:1d:a5:2c:ad:97:26:67:89:db:5b:1b:52:b1:36:59:c8:00:
         33:1a:71:6b:92:75:af:e2:bd:66:3d:cf:86:f6:2d:b0:55:e7:
         10:c1:a2:07:2e:50:92:f9:31:1e:52:13:f5:b1:9d:2e:f9:3c:
         59:15:26:e9:2e:17:d8:81:91:27:68:bf:cf:ee:45:57:60:33:
         a2:45:5d:e5:f1:82:01:67:88:44:14:d4:07:be:11:5e:35:b0:
         ae:73:72:70:3e:f4:28:d3:11:a4:bb:fc:06:3c:e5:8c:d4:b9:
         b3:7f:52:04:ec:69:b5:bf:73:d0:67:e9:1d:be:45:f1:32:e0:
         4e:99:af:0b:a7:f3:2d:86:07:56:4d:a9:2e:b6:54:19:4a:38:
         cb:d2:2b:ba
-----BEGIN CERTIFICATE-----
MIIE4zCCA8ugAwIBAgIBAzANBgkqhkiG9w0BAQQFADCBnzELMAkGA1UEBhMCUlUx
DzANBgNVBAgTBk1vc2NvdzEPMA0GA1UEBxMGTW9zY293MRAwDgYDVQQKEwdHcmFw
aGllMRQwEgYDVQQKEwtMTEMgR3JhcGhpZTETMBEGA1UECxMKSVQtY29tcGFueTEU
MBIGA1UEAxMLd3d3LnBoaWUucnUxGzAZBgkqhkiG9w0BCQEWDGhlbHBAcGhpZS5y
dTAeFw0xNzEwMDExMzU4NTVaFw0xODEwMDExMzU4NTVaMIGAMQswCQYDVQQGEwJS
VTEPMA0GA1UECBMGTW9zY293MQ8wDQYDVQQHEwZNb3Njb3cxEDAOBgNVBAoTB0dy
YXBoaWUxFDASBgNVBAoTC0xMQyBHcmFwaGllMRMwEQYDVQQLEwpJVC1jb21wYW55
MRIwEAYDVQQDEwllcy1kYXRhLTAwggEiMA0GCSqGSIb3DQEBAQUAA4IBDwAwggEK
AoIBAQDJcC9obj6QNWQbh5BEPO1kl3+/i7U7IHlL/QpUt49wS7bH8IY+K3cRfXLl
GbgHKUhbqSd3jlBgMQ1I3Q/c+J7lNKrEhj4usbOjm5K4jxpmVyofjyVXphMrmpTB
jCEQcU8FHmY8+62oQhoBMntFA55Uh25wa5yZixEcK21NEWCJ4jKDRXvygX87U0+J
n3igbcdLaS8rdULJsDQ/csitbK6gq2glOOzOoX04QrJW6hT8I7W/WZnpuJs0PY+J
4vi/uj3FAA8jF6lH37WWz/toblpP1bBcxAx118RmrjnYFs/gGallS5DFxGuha7ZQ
VK2rVj8boGCfjaCRWa20EuhZKThNAgMBAAGjggFFMIIBQTAJBgNVHRMEAjAAMCwG
CWCGSAGG+EIBDQQfFh1PcGVuU1NMIEdlbmVyYXRlZCBDZXJ0aWZpY2F0ZTAdBgNV
HQ4EFgQU3CJATqPvgLhmE0TihYsxil+O/+0wgdQGA1UdIwSBzDCByYAUI9+Y2ssj
PcoD/55heGZyUjwVsh2hgaWkgaIwgZ8xCzAJBgNVBAYTAlJVMQ8wDQYDVQQIEwZN
b3Njb3cxDzANBgNVBAcTBk1vc2NvdzEQMA4GA1UEChMHR3JhcGhpZTEUMBIGA1UE
ChMLTExDIEdyYXBoaWUxEzARBgNVBAsTCklULWNvbXBhbnkxFDASBgNVBAMTC3d3
dy5waGllLnJ1MRswGQYJKoZIhvcNAQkBFgxoZWxwQHBoaWUucnWCCQDi78EkeQNa
ZzAQBgNVHREECTAHiAUqAwQFBTANBgkqhkiG9w0BAQQFAAOCAQEAYTe/2VYVZLI+
1eWqkLDehx1+B8el58UOGNz9dkSfO3louFdN0Le2k5TUylTytkk0fsbWM9Q0EIPc
8Ckzjen15k6fs3i1EBTBXQ7AZlXyiR2rA/2jXjlVBS7QzNQUWyrGjIYv9lOcXTM+
thHp+B2lLK2XJmeJ21sbUrE2WcgAMxpxa5J1r+K9Zj3PhvYtsFXnEMGiBy5Qkvkx
HlIT9bGdLvk8WRUm6S4X2IGRJ2i/z+5FV2AzokVd5fGCAWeIRBTUB74RXjWwrnNy
cD70KNMRpLv8BjzljNS5s39SBOxptb9z0GfpHb5F8TLgTpmvC6fzLYYHVk2pLrZU
GUo4y9Irug==
-----END CERTIFICATE-----
